target datalayout = "e-m:e-p270:32:32-p271:32:32-p272:64:64-i64:64-i128:128-f80:128-n8:16:32:64-S128"
target triple = "x86_64-pc-linux-gnu"

%struct.global_State = type { ptr, ptr, %struct.GCState, %struct.GCstr, i8, i8, i8, i8, %struct.StrInternState, i32, %struct.GCRef, %struct.SBuf, %union.TValue, %union.TValue, %struct.Node, %union.TValue, %struct.GCupval, i32, i32, ptr, ptr, ptr, i32, i32, %struct.GCRef, %struct.MRef, %struct.MRef, %struct.PRNGState, [39 x %struct.GCRef] }
%struct.GCState = type { i64, i64, i8, i8, i8, i8, i32, %struct.GCRef, %struct.MRef, %struct.GCRef, %struct.GCRef, %struct.GCRef, %struct.GCRef, i64, i64, i32, i32, %struct.MRef }
%struct.GCstr = type { %struct.GCRef, i8, i8, i8, i8, i32, i32, i32 }
%struct.StrInternState = type { ptr, i32, i32, i32, i8, i8, i8, i8, i64 }
%struct.SBuf = type { ptr, ptr, ptr, %struct.MRef }
%struct.Node = type { %union.TValue, %union.TValue, %struct.MRef }
%union.TValue = type { i64 }
%struct.GCupval = type { %struct.GCRef, i8, i8, i8, i8, %union.anon, %struct.MRef, i32 }
%union.anon = type { %struct.anon.1 }
%struct.anon.1 = type { %struct.GCRef, %struct.GCRef }
%struct.GCRef = type { i64 }
%struct.MRef = type { i64 }
%struct.PRNGState = type { [4 x i64] }
%struct.lua_State = type { %struct.GCRef, i8, i8, i8, i8, %struct.MRef, %struct.GCRef, ptr, ptr, %struct.MRef, %struct.MRef, %struct.GCRef, %struct.GCRef, ptr, i32 }
%struct.GChead = type { %struct.GCRef, i8, i8, i8, i8, %struct.GCRef, %struct.GCRef, %struct.GCRef }

; Function Attrs: nounwind uwtable
define hidden ptr @lj_mem_newgco(ptr noundef %0, i64 noundef %1) #0 {
  %3 = alloca ptr, align 8
  %4 = alloca i64, align 8
  %5 = alloca ptr, align 8
  %6 = alloca ptr, align 8
  store ptr %0, ptr %3, align 8, !tbaa !37
  store i64 %1, ptr %4, align 8, !tbaa !11
  call void @llvm.lifetime.start.p0(i64 8, ptr %5) #7
  %7 = load ptr, ptr %3, align 8, !tbaa !37
  %8 = getelementptr inbounds nuw %struct.lua_State, ptr %7, i32 0, i32 5
  %9 = getelementptr inbounds nuw %struct.MRef, ptr %8, i32 0, i32 0
  %10 = load i64, ptr %9, align 8, !tbaa !39
  %11 = inttoptr i64 %10 to ptr
  store ptr %11, ptr %5, align 8, !tbaa !4
  call void @llvm.lifetime.start.p0(i64 8, ptr %6) #7
  %12 = load ptr, ptr %5, align 8, !tbaa !4
  %13 = getelementptr inbounds nuw %struct.global_State, ptr %12, i32 0, i32 0
  %14 = load ptr, ptr %13, align 8, !tbaa !113
  %15 = load ptr, ptr %5, align 8, !tbaa !4
  %16 = getelementptr inbounds nuw %struct.global_State, ptr %15, i32 0, i32 1
  %17 = load ptr, ptr %16, align 8, !tbaa !114
  %18 = load i64, ptr %4, align 8, !tbaa !11
  %19 = call ptr %14(ptr noundef %17, ptr noundef null, i64 noundef 0, i64 noundef %18)
  store ptr %19, ptr %6, align 8, !tbaa !28
  %20 = load ptr, ptr %6, align 8, !tbaa !28
  %21 = icmp eq ptr %20, null
  br i1 %21, label %22, label %24

22:                                               ; preds = %2
  %23 = load ptr, ptr %3, align 8, !tbaa !37
  call void @lj_err_mem(ptr noundef %23) #8
  unreachable

24:                                               ; preds = %2
  %25 = load i64, ptr %4, align 8, !tbaa !11
  %26 = load ptr, ptr %5, align 8, !tbaa !4
  %27 = getelementptr inbounds nuw %struct.global_State, ptr %26, i32 0, i32 2
  %28 = getelementptr inbounds nuw %struct.GCState, ptr %27, i32 0, i32 0
  %29 = load i64, ptr %28, align 8, !tbaa !82
  %30 = add i64 %29, %25
  store i64 %30, ptr %28, align 8, !tbaa !82
  %31 = load ptr, ptr %5, align 8, !tbaa !4
  %32 = getelementptr inbounds nuw %struct.global_State, ptr %31, i32 0, i32 2
  %33 = getelementptr inbounds nuw %struct.GCState, ptr %32, i32 0, i32 7
  %34 = getelementptr inbounds nuw %struct.GCRef, ptr %33, i32 0, i32 0
  %35 = load i64, ptr %34, align 8, !tbaa !43
  %36 = load ptr, ptr %6, align 8, !tbaa !28
  %37 = getelementptr inbounds nuw %struct.GChead, ptr %36, i32 0, i32 0
  %38 = getelementptr inbounds nuw %struct.GCRef, ptr %37, i32 0, i32 0
  store i64 %35, ptr %38, align 8, !tbaa !30
  %39 = load ptr, ptr %6, align 8, !tbaa !28
  %40 = ptrtoint ptr %39 to i64
  %41 = load ptr, ptr %5, align 8, !tbaa !4
  %42 = getelementptr inbounds nuw %struct.global_State, ptr %41, i32 0, i32 2
  %43 = getelementptr inbounds nuw %struct.GCState, ptr %42, i32 0, i32 7
  %44 = getelementptr inbounds nuw %struct.GCRef, ptr %43, i32 0, i32 0
  store i64 %40, ptr %44, align 8, !tbaa !43
  %45 = load ptr, ptr %5, align 8, !tbaa !4
  %46 = getelementptr inbounds nuw %struct.global_State, ptr %45, i32 0, i32 2
  %47 = getelementptr inbounds nuw %struct.GCState, ptr %46, i32 0, i32 2
  %48 = load i8, ptr %47, align 8, !tbaa !44
  %49 = zext i8 %48 to i32
  %50 = and i32 %49, 3
  %51 = trunc i32 %50 to i8
  %52 = load ptr, ptr %6, align 8, !tbaa !28
  %53 = getelementptr inbounds nuw %struct.GChead, ptr %52, i32 0, i32 1
  store i8 %51, ptr %53, align 8, !tbaa !30
  %54 = load ptr, ptr %6, align 8, !tbaa !28
  call void @llvm.lifetime.end.p0(i64 8, ptr %6) #7
  call void @llvm.lifetime.end.p0(i64 8, ptr %5) #7
  ret ptr %54
}