; Function Attrs: nounwind uwtable
define hidden nonnull ptr @lj_mem_newgco(ptr noundef %0, i64 noundef %1) local_unnamed_addr #0 {
  %3 = getelementptr inbounds nuw i8, ptr %0, i64 16
  %4 = load i64, ptr %3, align 8, !tbaa !30
  %5 = inttoptr i64 %4 to ptr
  %6 = load ptr, ptr %5, align 8, !tbaa !108
  %7 = getelementptr inbounds nuw i8, ptr %5, i64 8
  %8 = load ptr, ptr %7, align 8, !tbaa !109
  %9 = tail call ptr %6(ptr noundef %8, ptr noundef null, i64 noundef 0, i64 noundef %1) #8
  %10 = icmp eq ptr %9, null
  br i1 %10, label %11, label %12

11:                                               ; preds = %2
  tail call void @lj_err_mem(ptr noundef nonnull %0) #9
  unreachable

12:                                               ; preds = %2
  %13 = getelementptr inbounds nuw i8, ptr %5, i64 16
  %14 = load i64, ptr %13, align 8, !tbaa !68
  %15 = add i64 %14, %1
  store i64 %15, ptr %13, align 8, !tbaa !68
  %16 = getelementptr inbounds nuw i8, ptr %5, i64 40
  %17 = load i64, ptr %16, align 8, !tbaa !34
  store i64 %17, ptr %9, align 8, !tbaa !23
  %18 = ptrtoint ptr %9 to i64
  store i64 %18, ptr %16, align 8, !tbaa !34
  %19 = getelementptr inbounds nuw i8, ptr %5, i64 32
  %20 = load i8, ptr %19, align 8, !tbaa !35
  %21 = and i8 %20, 3
  %22 = getelementptr inbounds nuw i8, ptr %9, i64 8
  store i8 %21, ptr %22, align 8, !tbaa !23
  ret ptr %9
}